; Function Attrs: mustprogress uwtable
define void @_ZN8QuantLib21ConstantCPIVolatilityC2EdjRKNS_8CalendarENS_21BusinessDayConventionERKNS_10DayCounterERKNS_6PeriodENS_9FrequencyEb(ptr noundef nonnull align 8 dereferenceable(112) %this, ptr noundef %vtt, double noundef %vol, i32 noundef %settlementDays, ptr noundef nonnull align 8 dereferenceable(16) %cal, i32 noundef %bdc, ptr noundef nonnull align 8 dereferenceable(16) %dc, ptr noundef nonnull align 4 dereferenceable(8) %observationLag, i32 noundef %frequency, i1 noundef zeroext %indexIsInterpolated) unnamed_addr #6 align 2 personality ptr @__gxx_personality_v0 {
entry:
  %vol.addr = alloca double, align 8
  %ref.tmp = alloca %"class.boost::shared_ptr.13", align 8
  %ref.tmp7 = alloca %"class.boost::shared_ptr.14", align 8
  store double %vol, ptr %vol.addr, align 8, !tbaa !57
  %0 = getelementptr inbounds i8, ptr %vtt, i64 8
  tail call void @_ZN8QuantLib20CPIVolatilitySurfaceC2EjRKNS_8CalendarENS_21BusinessDayConventionERKNS_10DayCounterERKNS_6PeriodENS_9FrequencyEb(ptr noundef nonnull align 8 dereferenceable(93) %this, ptr noundef nonnull %0, i32 noundef %settlementDays, ptr noundef nonnull align 8 dereferenceable(16) %cal, i32 noundef %bdc, ptr noundef nonnull align 8 dereferenceable(16) %dc, ptr noundef nonnull align 4 dereferenceable(8) %observationLag, i32 noundef %frequency, i1 noundef zeroext %indexIsInterpolated)
  %1 = load ptr, ptr %vtt, align 8
  store ptr %1, ptr %this, align 8, !tbaa !42
  %2 = getelementptr inbounds i8, ptr %vtt, i64 80
  %3 = load ptr, ptr %2, align 8
  %vbase.offset.ptr = getelementptr i8, ptr %1, i64 -24
  %vbase.offset = load i64, ptr %vbase.offset.ptr, align 8
  %add.ptr = getelementptr inbounds i8, ptr %this, i64 %vbase.offset
  store ptr %3, ptr %add.ptr, align 8, !tbaa !42
  %4 = getelementptr inbounds i8, ptr %vtt, i64 88
  %5 = load ptr, ptr %4, align 8
  %vtable3 = load ptr, ptr %this, align 8, !tbaa !42
  %vbase.offset.ptr4 = getelementptr i8, ptr %vtable3, i64 -32
  %vbase.offset5 = load i64, ptr %vbase.offset.ptr4, align 8
  %add.ptr6 = getelementptr inbounds i8, ptr %this, i64 %vbase.offset5
  store ptr %5, ptr %add.ptr6, align 8, !tbaa !42
  call void @llvm.lifetime.start.p0(i64 16, ptr nonnull %ref.tmp) #23
  call void @llvm.lifetime.start.p0(i64 16, ptr nonnull %ref.tmp7) #23
  invoke void @_ZN5boost11make_sharedIN8QuantLib11SimpleQuoteEJRdEEENS_6detail15sp_if_not_arrayIT_E4typeEDpOT0_(ptr dead_on_unwind nonnull writable sret(%"class.boost::shared_ptr.14") align 8 %ref.tmp7, ptr noundef nonnull align 8 dereferenceable(8) %vol.addr)
          to label %invoke.cont unwind label %lpad

invoke.cont:                                      ; preds = %entry
  %volatility_ = getelementptr inbounds nuw i8, ptr %this, i64 96
  %6 = load ptr, ptr %ref.tmp7, align 8, !tbaa !58
  store ptr %6, ptr %ref.tmp, align 8, !tbaa !60
  %pn.i = getelementptr inbounds nuw i8, ptr %ref.tmp, i64 8
  %pn3.i = getelementptr inbounds nuw i8, ptr %ref.tmp7, i64 8
  %7 = load ptr, ptr %pn3.i, align 8, !tbaa !31
  store ptr %7, ptr %pn.i, align 8, !tbaa !31
  call void @llvm.memset.p0.i64(ptr noundef nonnull align 8 dereferenceable(16) %ref.tmp7, i8 0, i64 16, i1 false)
  invoke void @_ZN8QuantLib6HandleINS_5QuoteEEC2EON5boost10shared_ptrIS1_EEb(ptr noundef nonnull align 8 dereferenceable(16) %volatility_, ptr noundef nonnull align 8 dereferenceable(16) %ref.tmp, i1 noundef zeroext true)
          to label %invoke.cont9 unwind label %lpad8

invoke.cont9:                                     ; preds = %invoke.cont
  %8 = load ptr, ptr %pn.i, align 8, !tbaa !31
  %cmp.not.i.i = icmp eq ptr %8, null
  br i1 %cmp.not.i.i, label %_ZN5boost10shared_ptrIN8QuantLib5QuoteEED2Ev.exit, label %if.then.i.i

if.then.i.i:                                      ; preds = %invoke.cont9
  %use_count_.i.i.i = getelementptr inbounds nuw i8, ptr %8, i64 8
  %9 = atomicrmw sub ptr %use_count_.i.i.i, i32 1 acq_rel, align 4
  %cmp.i.i.i = icmp eq i32 %9, 1
  br i1 %cmp.i.i.i, label %if.then.i.i.i, label %_ZN5boost10shared_ptrIN8QuantLib5QuoteEED2Ev.exit

if.then.i.i.i:                                    ; preds = %if.then.i.i
  %vtable.i.i.i = load ptr, ptr %8, align 8, !tbaa !42
  %vfn.i.i.i = getelementptr inbounds i8, ptr %vtable.i.i.i, i64 16
  %10 = load ptr, ptr %vfn.i.i.i, align 8
  invoke void %10(ptr noundef nonnull align 8 dereferenceable(16) %8)
          to label %.noexc.i.i unwind label %terminate.lpad.i.i

.noexc.i.i:                                       ; preds = %if.then.i.i.i
  %weak_count_.i.i.i.i = getelementptr inbounds nuw i8, ptr %8, i64 12
  %11 = atomicrmw sub ptr %weak_count_.i.i.i.i, i32 1 acq_rel, align 4
  %cmp.i.i.i.i = icmp eq i32 %11, 1
  br i1 %cmp.i.i.i.i, label %if.then.i.i.i.i, label %_ZN5boost10shared_ptrIN8QuantLib5QuoteEED2Ev.exit

if.then.i.i.i.i:                                  ; preds = %.noexc.i.i
  %vtable.i.i.i.i = load ptr, ptr %8, align 8, !tbaa !42
  %vfn.i.i.i.i = getelementptr inbounds i8, ptr %vtable.i.i.i.i, i64 24
  %12 = load ptr, ptr %vfn.i.i.i.i, align 8
  invoke void %12(ptr noundef nonnull align 8 dereferenceable(16) %8)
          to label %_ZN5boost10shared_ptrIN8QuantLib5QuoteEED2Ev.exit unwind label %terminate.lpad.i.i

terminate.lpad.i.i:                               ; preds = %if.then.i.i.i.i, %if.then.i.i.i
  %13 = landingpad { ptr, i32 }
          catch ptr null
  %14 = extractvalue { ptr, i32 } %13, 0
  call void @__clang_call_terminate(ptr %14) #24
  unreachable

_ZN5boost10shared_ptrIN8QuantLib5QuoteEED2Ev.exit: ; preds = %invoke.cont9, %if.then.i.i, %.noexc.i.i, %if.then.i.i.i.i
  %15 = load ptr, ptr %pn3.i, align 8, !tbaa !31
  %cmp.not.i.i4 = icmp eq ptr %15, null
  br i1 %cmp.not.i.i4, label %_ZN5boost10shared_ptrIN8QuantLib11SimpleQuoteEED2Ev.exit, label %if.then.i.i5

if.then.i.i5:                                     ; preds = %_ZN5boost10shared_ptrIN8QuantLib5QuoteEED2Ev.exit
  %use_count_.i.i.i6 = getelementptr inbounds nuw i8, ptr %15, i64 8
  %16 = atomicrmw sub ptr %use_count_.i.i.i6, i32 1 acq_rel, align 4
  %cmp.i.i.i7 = icmp eq i32 %16, 1
  br i1 %cmp.i.i.i7, label %if.then.i.i.i8, label %_ZN5boost10shared_ptrIN8QuantLib11SimpleQuoteEED2Ev.exit

if.then.i.i.i8:                                   ; preds = %if.then.i.i5
  %vtable.i.i.i9 = load ptr, ptr %15, align 8, !tbaa !42
  %vfn.i.i.i10 = getelementptr inbounds i8, ptr %vtable.i.i.i9, i64 16
  %17 = load ptr, ptr %vfn.i.i.i10, align 8
  invoke void %17(ptr noundef nonnull align 8 dereferenceable(16) %15)
          to label %.noexc.i.i12 unwind label %terminate.lpad.i.i11

.noexc.i.i12:                                     ; preds = %if.then.i.i.i8
  %weak_count_.i.i.i.i13 = getelementptr inbounds nuw i8, ptr %15, i64 12
  %18 = atomicrmw sub ptr %weak_count_.i.i.i.i13, i32 1 acq_rel, align 4
  %cmp.i.i.i.i14 = icmp eq i32 %18, 1
  br i1 %cmp.i.i.i.i14, label %if.then.i.i.i.i15, label %_ZN5boost10shared_ptrIN8QuantLib11SimpleQuoteEED2Ev.exit

if.then.i.i.i.i15:                                ; preds = %.noexc.i.i12
  %vtable.i.i.i.i16 = load ptr, ptr %15, align 8, !tbaa !42
  %vfn.i.i.i.i17 = getelementptr inbounds i8, ptr %vtable.i.i.i.i16, i64 24
  %19 = load ptr, ptr %vfn.i.i.i.i17, align 8
  invoke void %19(ptr noundef nonnull align 8 dereferenceable(16) %15)
          to label %_ZN5boost10shared_ptrIN8QuantLib11SimpleQuoteEED2Ev.exit unwind label %terminate.lpad.i.i11

terminate.lpad.i.i11:                             ; preds = %if.then.i.i.i.i15, %if.then.i.i.i8
  %20 = landingpad { ptr, i32 }
          catch ptr null
  %21 = extractvalue { ptr, i32 } %20, 0
  call void @__clang_call_terminate(ptr %21) #24
  unreachable

_ZN5boost10shared_ptrIN8QuantLib11SimpleQuoteEED2Ev.exit: ; preds = %_ZN5boost10shared_ptrIN8QuantLib5QuoteEED2Ev.exit, %if.then.i.i5, %.noexc.i.i12, %if.then.i.i.i.i15
  call void @llvm.lifetime.end.p0(i64 16, ptr nonnull %ref.tmp7) #23
  call void @llvm.lifetime.end.p0(i64 16, ptr nonnull %ref.tmp) #23
  ret void

lpad:                                             ; preds = %entry
  %22 = landingpad { ptr, i32 }
          cleanup
  br label %ehcleanup

lpad8:                                            ; preds = %invoke.cont
  %23 = landingpad { ptr, i32 }
          cleanup
  call void @_ZN5boost10shared_ptrIN8QuantLib5QuoteEED2Ev(ptr noundef nonnull align 8 dereferenceable(16) %ref.tmp) #23
  call void @_ZN5boost10shared_ptrIN8QuantLib11SimpleQuoteEED2Ev(ptr noundef nonnull align 8 dereferenceable(16) %ref.tmp7) #23
  br label %ehcleanup

ehcleanup:                                        ; preds = %lpad8, %lpad
  %.pn = phi { ptr, i32 } [ %23, %lpad8 ], [ %22, %lpad ]
  call void @llvm.lifetime.end.p0(i64 16, ptr nonnull %ref.tmp7) #23
  call void @llvm.lifetime.end.p0(i64 16, ptr nonnull %ref.tmp) #23
  %24 = getelementptr inbounds i8, ptr %vtt, i64 24
  call void @_ZN8QuantLib13TermStructureD2Ev(ptr noundef nonnull align 8 dereferenceable(64) %this, ptr noundef nonnull %24) #23
  resume { ptr, i32 } %.pn
}